; Function Attrs: nounwind uwtable
define hidden ptr @lxb_html_tokenizer_state_char_ref(ptr nocapture noundef %0, ptr noundef %1, ptr noundef readnone %2) #1 {
  %4 = getelementptr inbounds i8, ptr %0, i64 224
  store i8 0, ptr %4, align 8
  %5 = load i8, ptr %1, align 1
  %6 = zext i8 %5 to i64
  %7 = getelementptr inbounds [256 x i64], ptr @lexbor_str_res_alphanumeric_character, i64 0, i64 %6
  %8 = load i64, ptr %7, align 8
  %.not.i = icmp eq i64 %8, 255
  br i1 %.not.i, label %21, label %9

9:                                                ; preds = %3
  %10 = getelementptr inbounds i8, ptr %0, i64 184
  store ptr getelementptr inbounds ([9854 x %struct.lexbor_sbst_entry_static_t], ptr @lxb_html_tokenizer_res_entities_sbst, i64 0, i64 1), ptr %10, align 8
  %11 = getelementptr inbounds i8, ptr %0, i64 192
  store ptr null, ptr %11, align 8
  %12 = getelementptr inbounds i8, ptr %0, i64 136
  %13 = load ptr, ptr %12, align 8
  %14 = getelementptr inbounds i8, ptr %13, i64 -1
  %15 = getelementptr inbounds i8, ptr %0, i64 128
  %16 = load ptr, ptr %15, align 8
  %17 = ptrtoint ptr %14 to i64
  %18 = ptrtoint ptr %16 to i64
  %19 = sub i64 %17, %18
  %20 = getelementptr inbounds i8, ptr %0, i64 200
  store i64 %19, ptr %20, align 8
  store ptr @lxb_html_tokenizer_state_char_ref_named, ptr %0, align 8
  br label %_lxb_html_tokenizer_state_char_ref.exit

21:                                               ; preds = %3
  %22 = icmp eq i8 %5, 35
  br i1 %22, label %23, label %53

23:                                               ; preds = %21
  %24 = getelementptr inbounds i8, ptr %0, i64 104
  store ptr %1, ptr %24, align 8
  %25 = getelementptr inbounds i8, ptr %0, i64 136
  %26 = load ptr, ptr %25, align 8
  %27 = getelementptr inbounds i8, ptr %26, i64 -1
  %28 = getelementptr inbounds i8, ptr %0, i64 128
  %29 = load ptr, ptr %28, align 8
  %30 = ptrtoint ptr %27 to i64
  %31 = ptrtoint ptr %29 to i64
  %32 = sub i64 %30, %31
  %33 = getelementptr inbounds i8, ptr %0, i64 200
  store i64 %32, ptr %33, align 8
  %34 = getelementptr inbounds i8, ptr %26, i64 1
  %35 = getelementptr inbounds i8, ptr %0, i64 144
  %36 = load ptr, ptr %35, align 8
  %37 = icmp ugt ptr %34, %36
  br i1 %37, label %38, label %48

38:                                               ; preds = %23
  %39 = ptrtoint ptr %36 to i64
  %reass.sub.i = sub i64 %39, %31
  %40 = add i64 %reass.sub.i, 4097
  %41 = tail call ptr @lexbor_realloc(ptr noundef %29, i64 noundef %40) #5
  store ptr %41, ptr %28, align 8
  %42 = icmp eq ptr %41, null
  br i1 %42, label %lxb_html_tokenizer_temp_append.exit.i, label %lxb_html_tokenizer_temp_realloc.exit.thread.i.i

lxb_html_tokenizer_temp_realloc.exit.thread.i.i:  ; preds = %38
  %43 = ptrtoint ptr %26 to i64
  %44 = sub i64 %43, %31
  %45 = getelementptr inbounds i8, ptr %41, i64 %44
  store ptr %45, ptr %25, align 8
  %46 = getelementptr inbounds i8, ptr %41, i64 %40
  store ptr %46, ptr %35, align 8
  br label %48

lxb_html_tokenizer_temp_append.exit.i:            ; preds = %38
  %47 = getelementptr inbounds i8, ptr %0, i64 232
  store i32 2, ptr %47, align 8
  br label %_lxb_html_tokenizer_state_char_ref.exit

48:                                               ; preds = %lxb_html_tokenizer_temp_realloc.exit.thread.i.i, %23
  %49 = phi ptr [ %45, %lxb_html_tokenizer_temp_realloc.exit.thread.i.i ], [ %26, %23 ]
  %50 = load i8, ptr %1, align 1
  store i8 %50, ptr %49, align 1
  %51 = getelementptr inbounds i8, ptr %49, i64 1
  store ptr %51, ptr %25, align 8
  store ptr @lxb_html_tokenizer_state_char_ref_numeric, ptr %0, align 8
  %52 = getelementptr inbounds i8, ptr %1, i64 1
  br label %_lxb_html_tokenizer_state_char_ref.exit

53:                                               ; preds = %21
  %54 = getelementptr inbounds i8, ptr %0, i64 8
  %55 = load ptr, ptr %54, align 8
  store ptr %55, ptr %0, align 8
  br label %_lxb_html_tokenizer_state_char_ref.exit

_lxb_html_tokenizer_state_char_ref.exit:          ; preds = %9, %lxb_html_tokenizer_temp_append.exit.i, %48, %53
  %.0.i = phi ptr [ %1, %9 ], [ %52, %48 ], [ %1, %53 ], [ %2, %lxb_html_tokenizer_temp_append.exit.i ]
  ret ptr %.0.i
}